; Function Attrs: mustprogress uwtable
define hidden noundef nonnull align 8 dereferenceable(196) ptr @_ZN19OpenColorIO_v2_5dev17GradingToneOpDataaSERKS0_(ptr noundef nonnull returned align 8 dereferenceable(196) %0, ptr noundef nonnull align 8 dereferenceable(196) %1) local_unnamed_addr #3 align 2 {
  %3 = icmp eq ptr %0, %1
  br i1 %3, label %30, label %4

4:                                                ; preds = %2
  %5 = tail call noundef nonnull align 8 dereferenceable(168) ptr @_ZN19OpenColorIO_v2_5dev6OpDataaSERKS0_(ptr noundef nonnull align 8 dereferenceable(168) %0, ptr noundef nonnull align 8 dereferenceable(168) %1)
  %6 = getelementptr inbounds nuw i8, ptr %1, i64 168
  %7 = load i32, ptr %6, align 8, !tbaa !6
  %8 = getelementptr inbounds nuw i8, ptr %0, i64 168
  store i32 %7, ptr %8, align 8, !tbaa !6
  %9 = getelementptr inbounds nuw i8, ptr %1, i64 192
  %10 = load i32, ptr %9, align 8, !tbaa !56
  %11 = getelementptr inbounds nuw i8, ptr %0, i64 192
  store i32 %10, ptr %11, align 8, !tbaa !56
  %12 = getelementptr inbounds nuw i8, ptr %0, i64 176
  %13 = load ptr, ptr %12, align 8, !tbaa !49
  %14 = getelementptr inbounds nuw i8, ptr %1, i64 176
  %15 = load ptr, ptr %14, align 8, !tbaa !49
  %16 = load ptr, ptr %15, align 8, !tbaa !3
  %17 = getelementptr inbounds nuw i8, ptr %16, i64 24
  %18 = load ptr, ptr %17, align 8
  %19 = tail call noundef nonnull align 8 dereferenceable(248) ptr %18(ptr noundef nonnull align 8 dereferenceable(1208) %15)
  %20 = load ptr, ptr %13, align 8, !tbaa !3
  %21 = getelementptr inbounds nuw i8, ptr %20, i64 32
  %22 = load ptr, ptr %21, align 8
  tail call void %22(ptr noundef nonnull align 8 dereferenceable(1208) %13, ptr noundef nonnull align 8 dereferenceable(248) %19)
  %23 = load ptr, ptr %14, align 8, !tbaa !49
  %24 = getelementptr inbounds nuw i8, ptr %23, i64 12
  %25 = load i8, ptr %24, align 4, !tbaa !60, !range !65, !noundef !66
  %26 = trunc nuw i8 %25 to i1
  br i1 %26, label %27, label %30

27:                                               ; preds = %4
  %28 = load ptr, ptr %12, align 8, !tbaa !49
  %29 = getelementptr inbounds nuw i8, ptr %28, i64 12
  store i8 1, ptr %29, align 4, !tbaa !60
  br label %30

30:                                               ; preds = %4, %27, %2
  ret ptr %0
}